Certificate:
    Data:
        Version: 3 (0x2)
        Serial Number: 4098 (0x1002)
        Signature Algorithm: sha256WithRSAEncryption
        Issuer: C=CN, ST=IDP, O=IDP, OU=IDP, CN=IDP
        Validity
            Not Before: Jan 13 07:00:28 2020 GMT
            Not After : Jan 10 07:00:28 2030 GMT
        Subject: C=CN, ST=IDP, O=IDP, OU=IDP, CN=IDP
        Subject Public Key Info:
            Public Key Algorithm: rsaEncryption
                RSA Public-Key: (2048 bit)
                Modulus:
                    00:cd:19:84:75:b2:aa:e4:0a:2c:66:4b:03:e3:7c:
                    a0:19:39:a0:66:a2:f0:05:6c:bf:37:4b:b6:b8:46:
                    7b:bc:c4:50:5a:7b:b8:12:ed:cf:9d:e1:f3:cf:ae:
                    2f:bf:b5:36:59:74:82:fc:47:7b:95:4b:ed:5d:81:
                    77:a1:f3:38:06:b0:50:b4:d6:3d:f7:f3:6c:67:cb:
                    14:0b:e7:7d:c1:20:85:63:46:1a:8b:65:46:27:53:
                    6b:05:33:80:6b:39:77:c6:71:ce:06:e0:80:13:ba:
                    bc:03:53:30:7e:1d:45:0b:ef:b4:74:f9:2f:16:19:
                    22:f3:33:e9:9f:56:0d:b2:9d:16:b7:fd:db:6a:7e:
                    86:99:84:21:ae:ff:5d:a0:33:51:e4:3f:f6:2e:e1:
                    b4:df:d7:25:97:1a:df:97:a6:0f:4b:e4:40:07:83:
                    c7:45:53:d1:4d:09:4c:b9:20:c8:71:79:a8:23:74:
                    5a:f9:e4:35:51:d2:02:2d:95:a9:e5:22:c4:8e:38:
                    d9:c3:29:2d:99:74:47:db:38:0b:fa:84:2e:a9:22:
                    19:b1:c1:07:64:9a:f8:f7:64:0d:06:2b:cd:d9:50:
                    ed:5c:08:07:86:d4:1f:96:ed:66:74:63:d7:85:8e:
                    9e:88:9b:6b:81:ef:c1:dd:ca:77:17:59:a2:38:cc:
                    cf:f9
                Exponent: 65537 (0x10001)
        X509v3 extensions:
            X509v3 Basic Constraints: 
                CA:FALSE
            Netscape Comment: 
                OpenSSL Generated Certificate
            X509v3 Subject Key Identifier: 
                6D:99:B6:FB:D6:2F:8C:DA:F4:00:F0:21:7F:C0:C3:29:19:00:3F:0A
            X509v3 Authority Key Identifier: 
                keyid:6D:99:B6:FB:D6:2F:8C:DA:F4:00:F0:21:7F:C0:C3:29:19:00:3F:0A

    Signature Algorithm: sha256WithRSAEncryption
         72:ee:82:48:7d:59:13:2c:fc:bb:91:c7:02:9a:3c:80:45:1f:
         20:4b:87:0b:8b:ac:45:00:13:bf:40:18:b3:01:ed:68:69:84:
         9e:74:b2:34:8a:1d:44:74:4e:28:fd:cd:23:3f:7b:f5:4f:04:
         71:ca:3d:80:53:54:ff:bd:a5:e1:d8:4b:35:02:48:61:c6:04:
         de:7e:82:07:88:b1:13:3b:95:9f:6f:27:22:bc:c8:ce:3b:1a:
         db:f4:20:63:51:50:41:2d:f9:8c:e0:76:3e:34:49:06:18:1a:
         f8:a5:60:33:6a:8b:ca:6d:f4:28:5a:69:8a:6e:1d:9f:b5:b8:
         f0:59:ac:a4:3b:1a:f5:ce:41:52:bb:68:b3:be:68:35:35:ed:
         d3:25:55:4c:6b:28:06:e8:20:19:09:f2:1e:86:e9:b8:91:85:
         85:9e:cb:ed:96:e0:e5:f6:9d:21:47:d2:16:87:f2:e2:5f:ef:
         de:12:36:e6:3a:e9:4d:b9:83:cb:e8:f6:d0:fd:42:38:e7:b0:
         84:49:9f:ba:16:b0:d8:50:2a:be:ec:51:d4:04:0d:bc:1e:e5:
         8f:a4:6c:f3:4e:ab:e2:6c:66:c6:0f:85:6f:37:80:d9:cb:aa:
         bf:fc:e1:71:4e:57:1a:11:22:6c:c4:dc:1e:fd:0d:2e:a5:3b:
         15:26:20:16
-----BEGIN CERTIFICATE-----
MIIDgTCCAmmgAwIBAgICEAIwDQYJKoZIhvcNAQELBQAwRTELMAkGA1UEBhMCQ04x
DDAKBgNVBAgMA0lEUDEMMAoGA1UECgwDSURQMQwwCgYDVQQLDANJRFAxDDAKBgNV
BAMMA0lEUDAeFw0yMDAxMTMwNzAwMjhaFw0zMDAxMTAwNzAwMjhaMEUxCzAJBgNV
BAYTAkNOMQwwCgYDVQQIDANJRFAxDDAKBgNVBAoMA0lEUDEMMAoGA1UECwwDSURQ
MQwwCgYDVQQDDANJRFAwggEiMA0GCSqGSIb3DQEBAQUAA4IBDwAwggEKAoIBAQDN
GYR1sqrkCixmSwPjfKAZOaBmovAFbL83S7a4Rnu8xFBae7gS7c+d4fPPri+/tTZZ
dIL8R3uVS+1dgXeh8zgGsFC01j3382xnyxQL533BIIVjRhqLZUYnU2sFM4BrOXfG
cc4G4IATurwDUzB+HUUL77R0+S8WGSLzM+mfVg2ynRa3/dtqfoaZhCGu/12gM1Hk
P/Yu4bTf1yWXGt+Xpg9L5EAHg8dFU9FNCUy5IMhxeagjdFr55DVR0gItlanlIsSO
ONnDKS2ZdEfbOAv6hC6pIhmxwQdkmvj3ZA0GK83ZUO1cCAeG1B+W7WZ0Y9eFjp6I
m2uB78HdyncXWaI4zM/5AgMBAAGjezB5MAkGA1UdEwQCMAAwLAYJYIZIAYb4QgEN
BB8WHU9wZW5TU0wgR2VuZXJhdGVkIENlcnRpZmljYXRlMB0GA1UdDgQWBBRtmbb7
1i+M2vQA8CF/wMMpGQA/CjAfBgNVHSMEGDAWgBRtmbb71i+M2vQA8CF/wMMpGQA/
CjANBgkqhkiG9w0BAQsFAAOCAQEAcu6CSH1ZEyz8u5HHApo8gEUfIEuHC4usRQAT
v0AYswHtaGmEnnSyNIodRHROKP3NIz979U8Ecco9gFNU/72l4dhLNQJIYcYE3n6C
B4ixEzuVn28nIrzIzjsa2/QgY1FQQS35jOB2PjRJBhga+KVgM2qLym30KFppim4d
n7W48FmspDsa9c5BUrtos75oNTXt0yVVTGsoBuggGQnyHobpuJGFhZ7L7Zbg5fad
IUfSFofy4l/v3hI25jrpTbmDy+j20P1COOewhEmfuhaw2FAqvuxR1AQNvB7lj6Rs
806r4mxmxg+FbzeA2cuqv/zhcU5XGhEibMTcHv0NLqU7FSYgFg==
-----END CERTIFICATE-----
